; Function Attrs: null_pointer_is_valid sspstrong uwtable
define internal void @after_dtd_close(ptr noundef %0, ptr readnone captures(none) %1, ptr noundef readonly captures(none) %2) #4 {
  %4 = load ptr, ptr %0, align 8
  %5 = getelementptr inbounds nuw i8, ptr %0, i64 8
  %6 = load i32, ptr %5, align 8
  %7 = add i32 %6, -1
  %8 = zext i32 %7 to i64
  %9 = getelementptr ptr, ptr %4, i64 %8
  %10 = load ptr, ptr %9, align 8
  %11 = getelementptr inbounds nuw i8, ptr %10, i64 72
  %12 = load ptr, ptr %11, align 8
  %13 = getelementptr inbounds nuw i8, ptr %2, i64 16
  %14 = load ptr, ptr %13, align 8
  %15 = getelementptr inbounds nuw i8, ptr %2, i64 24
  %16 = load i32, ptr %15, align 8
  %17 = getelementptr inbounds nuw i8, ptr %2, i64 28
  %18 = load i32, ptr %17, align 4
  %19 = tail call ptr @proto_tree_add_format_text(ptr noundef %12, ptr noundef %14, i32 noundef %16, i32 noundef %18)
  %20 = load i32, ptr %5, align 8
  %21 = icmp ugt i32 %20, 1
  br i1 %21, label %22, label %25

22:                                               ; preds = %3
  %23 = add i32 %20, -1
  %24 = tail call ptr @g_ptr_array_remove_index_fast(ptr noundef %0, i32 noundef %23)
  br label %33

25:                                               ; preds = %3
  %26 = load ptr, ptr %11, align 8
  %27 = getelementptr inbounds nuw i8, ptr %10, i64 112
  %28 = load ptr, ptr %27, align 8
  %29 = load ptr, ptr %13, align 8
  %30 = load i32, ptr %15, align 8
  %31 = load i32, ptr %17, align 4
  %32 = tail call ptr @proto_tree_add_expert(ptr noundef %26, ptr noundef %28, ptr noundef nonnull @ei_xml_closing_unopened_tag, ptr noundef %29, i32 noundef %30, i32 noundef %31)
  br label %33

33:                                               ; preds = %25, %22
  ret void
}